; ModuleID = '52/47.c'
source_filename = "52/47.c"
target datalayout = "e-m:e-p270:32:32-p271:32:32-p272:64:64-i64:64-f80:128-n8:16:32:64-S128"
target triple = "x86_64-pc-linux-gnu"

@.str = private unnamed_addr constant [6 x i8] c"%d%d\0A\00", align 1
@.str.1 = private unnamed_addr constant [3 x i8] c"%d\00", align 1
@.str.2 = private unnamed_addr constant [4 x i8] c" %d\00", align 1

; Function Attrs: noinline nounwind uwtable
define dso_local i32 @main(i32 %0, i8** %1) #0 {
  %3 = alloca i32, align 4
  %4 = alloca i32, align 4
  %5 = alloca i8**, align 8
  %6 = alloca i32, align 4
  %7 = alloca i32, align 4
  %8 = alloca i32, align 4
  %9 = alloca [30 x i32], align 16
  %10 = alloca i32*, align 8
  %11 = alloca i32, align 4
  store i32 0, i32* %3, align 4
  store i32 %0, i32* %4, align 4
  store i8** %1, i8*** %5, align 8
  %12 = call i32 (i8*, ...) @__isoc99_scanf(i8* getelementptr inbounds ([6 x i8], [6 x i8]* @.str, i64 0, i64 0), i32* %6, i32* %7)
  %13 = load i32, i32* %7, align 4
  %14 = load i32, i32* %6, align 4
  %15 = srem i32 %13, %14
  store i32 %15, i32* %7, align 4
  %16 = load i32, i32* %7, align 4
  %17 = icmp ne i32 %16, 0
  br i1 %17, label %18, label %82

18:                                               ; preds = %2
  store i32 0, i32* %8, align 4
  br label %19

19:                                               ; preds = %28, %18
  %20 = load i32, i32* %8, align 4
  %21 = load i32, i32* %6, align 4
  %22 = icmp slt i32 %20, %21
  br i1 %22, label %23, label %31

23:                                               ; preds = %19
  %24 = load i32, i32* %8, align 4
  %25 = sext i32 %24 to i64
  %26 = getelementptr inbounds [30 x i32], [30 x i32]* %9, i64 0, i64 %25
  %27 = call i32 (i8*, ...) @__isoc99_scanf(i8* getelementptr inbounds ([3 x i8], [3 x i8]* @.str.1, i64 0, i64 0), i32* %26)
  br label %28

28:                                               ; preds = %23
  %29 = load i32, i32* %8, align 4
  %30 = add nsw i32 %29, 1
  store i32 %30, i32* %8, align 4
  br label %19

31:                                               ; preds = %19
  br label %32

32:                                               ; preds = %63, %31
  %33 = getelementptr inbounds [30 x i32], [30 x i32]* %9, i64 0, i64 0
  %34 = load i32, i32* %6, align 4
  %35 = sext i32 %34 to i64
  %36 = getelementptr inbounds i32, i32* %33, i64 %35
  %37 = getelementptr inbounds i32, i32* %36, i64 -1
  %38 = load i32, i32* %37, align 4
  store i32 %38, i32* %11, align 4
  %39 = getelementptr inbounds [30 x i32], [30 x i32]* %9, i64 0, i64 0
  %40 = load i32, i32* %6, align 4
  %41 = sext i32 %40 to i64
  %42 = getelementptr inbounds i32, i32* %39, i64 %41
  %43 = getelementptr inbounds i32, i32* %42, i64 -1
  store i32* %43, i32** %10, align 8
  br label %44

44:                                               ; preds = %53, %32
  %45 = load i32*, i32** %10, align 8
  %46 = getelementptr inbounds [30 x i32], [30 x i32]* %9, i64 0, i64 0
  %47 = icmp ugt i32* %45, %46
  br i1 %47, label %48, label %56

48:                                               ; preds = %44
  %49 = load i32*, i32** %10, align 8
  %50 = getelementptr inbounds i32, i32* %49, i64 -1
  %51 = load i32, i32* %50, align 4
  %52 = load i32*, i32** %10, align 8
  store i32 %51, i32* %52, align 4
  br label %53

53:                                               ; preds = %48
  %54 = load i32*, i32** %10, align 8
  %55 = getelementptr inbounds i32, i32* %54, i32 -1
  store i32* %55, i32** %10, align 8
  br label %44

56:                                               ; preds = %44
  %57 = load i32, i32* %11, align 4
  %58 = getelementptr inbounds [30 x i32], [30 x i32]* %9, i64 0, i64 0
  store i32 %57, i32* %58, align 16
  %59 = load i32, i32* %7, align 4
  %60 = add nsw i32 %59, -1
  store i32 %60, i32* %7, align 4
  %61 = load i32, i32* %7, align 4
  %62 = icmp sgt i32 %61, 0
  br i1 %62, label %63, label %64

63:                                               ; preds = %56
  br label %32

64:                                               ; preds = %56
  %65 = getelementptr inbounds [30 x i32], [30 x i32]* %9, i64 0, i64 0
  %66 = load i32, i32* %65, align 16
  %67 = call i32 (i8*, ...) @printf(i8* getelementptr inbounds ([3 x i8], [3 x i8]* @.str.1, i64 0, i64 0), i32 %66)
  store i32 1, i32* %8, align 4
  br label %68

68:                                               ; preds = %78, %64
  %69 = load i32, i32* %8, align 4
  %70 = load i32, i32* %6, align 4
  %71 = icmp slt i32 %69, %70
  br i1 %71, label %72, label %81

72:                                               ; preds = %68
  %73 = load i32, i32* %8, align 4
  %74 = sext i32 %73 to i64
  %75 = getelementptr inbounds [30 x i32], [30 x i32]* %9, i64 0, i64 %74
  %76 = load i32, i32* %75, align 4
  %77 = call i32 (i8*, ...) @printf(i8* getelementptr inbounds ([4 x i8], [4 x i8]* @.str.2, i64 0, i64 0), i32 %76)
  br label %78

78:                                               ; preds = %72
  %79 = load i32, i32* %8, align 4
  %80 = add nsw i32 %79, 1
  store i32 %80, i32* %8, align 4
  br label %68

81:                                               ; preds = %68
  br label %108

82:                                               ; preds = %2
  %83 = load i32, i32* %6, align 4
  %84 = load i32, i32* %7, align 4
  %85 = icmp eq i32 %83, %84
  br i1 %85, label %89, label %86

86:                                               ; preds = %82
  %87 = load i32, i32* %7, align 4
  %88 = icmp eq i32 %87, 0
  br i1 %88, label %89, label %107

89:                                               ; preds = %86, %82
  %90 = getelementptr inbounds [30 x i32], [30 x i32]* %9, i64 0, i64 0
  %91 = load i32, i32* %90, align 16
  %92 = call i32 (i8*, ...) @printf(i8* getelementptr inbounds ([3 x i8], [3 x i8]* @.str.1, i64 0, i64 0), i32 %91)
  store i32 1, i32* %8, align 4
  br label %93

93:                                               ; preds = %103, %89
  %94 = load i32, i32* %8, align 4
  %95 = load i32, i32* %6, align 4
  %96 = icmp slt i32 %94, %95
  br i1 %96, label %97, label %106

97:                                               ; preds = %93
  %98 = load i32, i32* %8, align 4
  %99 = sext i32 %98 to i64
  %100 = getelementptr inbounds [30 x i32], [30 x i32]* %9, i64 0, i64 %99
  %101 = load i32, i32* %100, align 4
  %102 = call i32 (i8*, ...) @printf(i8* getelementptr inbounds ([4 x i8], [4 x i8]* @.str.2, i64 0, i64 0), i32 %101)
  br label %103

103:                                              ; preds = %97
  %104 = load i32, i32* %8, align 4
  %105 = add nsw i32 %104, 1
  store i32 %105, i32* %8, align 4
  br label %93

106:                                              ; preds = %93
  br label %107

107:                                              ; preds = %106, %86
  br label %108

108:                                              ; preds = %107, %81
  ret i32 0
}

declare dso_local i32 @__isoc99_scanf(i8*, ...) #1

declare dso_local i32 @printf(i8*, ...) #1


!llvm.module.flags = !{!0}
!llvm.ident = !{!1}

!0 = !{i32 1, !"wchar_size", i32 4}
!1 = !{!"clang version 10.0.0-4ubuntu1 "}
